target datalayout = "e-m:e-p270:32:32-p271:32:32-p272:64:64-i64:64-i128:128-f80:128-n8:16:32:64-S128"
target triple = "x86_64-pc-linux-gnu"

%struct.asn1_string_st = type { i32, i32, ptr, i64 }

@.str = private unnamed_addr constant [31 x i8] c"../openssl/crypto/asn1/a_int.c\00", align 1
@__func__.asn1_string_to_bn = private unnamed_addr constant [18 x i8] c"asn1_string_to_bn\00", align 1

; Function Attrs: nounwind uwtable
define internal ptr @asn1_string_to_bn(ptr noundef %0, ptr noundef %1, i32 noundef %2) #0 {
  %4 = alloca ptr, align 8
  %5 = alloca ptr, align 8
  %6 = alloca ptr, align 8
  %7 = alloca i32, align 4
  %8 = alloca ptr, align 8
  %9 = alloca i32, align 4
  store ptr %0, ptr %5, align 8, !tbaa !3
  store ptr %1, ptr %6, align 8, !tbaa !30
  store i32 %2, ptr %7, align 4, !tbaa !13
  call void @llvm.lifetime.start.p0(i64 8, ptr %8) #4
  %10 = load ptr, ptr %5, align 8, !tbaa !3
  %11 = getelementptr inbounds nuw %struct.asn1_string_st, ptr %10, i32 0, i32 1
  %12 = load i32, ptr %11, align 4, !tbaa !8
  %13 = and i32 %12, -257
  %14 = load i32, ptr %7, align 4, !tbaa !13
  %15 = icmp ne i32 %13, %14
  br i1 %15, label %16, label %17

16:                                               ; preds = %3
  call void @ERR_new()
  call void @ERR_set_debug(ptr noundef @.str, i32 noundef 515, ptr noundef @__func__.asn1_string_to_bn)
  call void (i32, i32, ptr, ...) @ERR_set_error(i32 noundef 13, i32 noundef 225, ptr noundef null)
  store ptr null, ptr %4, align 8
  store i32 1, ptr %9, align 4
  br label %39

17:                                               ; preds = %3
  %18 = load ptr, ptr %5, align 8, !tbaa !3
  %19 = getelementptr inbounds nuw %struct.asn1_string_st, ptr %18, i32 0, i32 2
  %20 = load ptr, ptr %19, align 8, !tbaa !16
  %21 = load ptr, ptr %5, align 8, !tbaa !3
  %22 = getelementptr inbounds nuw %struct.asn1_string_st, ptr %21, i32 0, i32 0
  %23 = load i32, ptr %22, align 8, !tbaa !17
  %24 = load ptr, ptr %6, align 8, !tbaa !30
  %25 = call ptr @BN_bin2bn(ptr noundef %20, i32 noundef %23, ptr noundef %24)
  store ptr %25, ptr %8, align 8, !tbaa !30
  %26 = load ptr, ptr %8, align 8, !tbaa !30
  %27 = icmp eq ptr %26, null
  br i1 %27, label %28, label %29

28:                                               ; preds = %17
  call void @ERR_new()
  call void @ERR_set_debug(ptr noundef @.str, i32 noundef 521, ptr noundef @__func__.asn1_string_to_bn)
  call void (i32, i32, ptr, ...) @ERR_set_error(i32 noundef 13, i32 noundef 105, ptr noundef null)
  store ptr null, ptr %4, align 8
  store i32 1, ptr %9, align 4
  br label %39

29:                                               ; preds = %17
  %30 = load ptr, ptr %5, align 8, !tbaa !3
  %31 = getelementptr inbounds nuw %struct.asn1_string_st, ptr %30, i32 0, i32 1
  %32 = load i32, ptr %31, align 4, !tbaa !8
  %33 = and i32 %32, 256
  %34 = icmp ne i32 %33, 0
  br i1 %34, label %35, label %37

35:                                               ; preds = %29
  %36 = load ptr, ptr %8, align 8, !tbaa !30
  call void @BN_set_negative(ptr noundef %36, i32 noundef 1)
  br label %37

37:                                               ; preds = %35, %29
  %38 = load ptr, ptr %8, align 8, !tbaa !30
  store ptr %38, ptr %4, align 8
  store i32 1, ptr %9, align 4
  br label %39

39:                                               ; preds = %37, %28, %16
  call void @llvm.lifetime.end.p0(i64 8, ptr %8) #4
  %40 = load ptr, ptr %4, align 8
  ret ptr %40
}