; Function Attrs: nounwind uwtable
define internal fastcc ptr @asn1_string_to_bn(ptr noundef readonly captures(none) %0, ptr noundef %1, i32 noundef range(i32 2, 11) %2) unnamed_addr #0 {
  %4 = getelementptr inbounds nuw i8, ptr %0, i64 4
  %5 = load i32, ptr %4, align 4, !tbaa !3
  %6 = and i32 %5, -257
  %.not = icmp eq i32 %6, %2
  br i1 %.not, label %8, label %7

7:                                                ; preds = %3
  tail call void @ERR_new() #6
  tail call void @ERR_set_debug(ptr noundef nonnull @.str, i32 noundef 515, ptr noundef nonnull @__func__.asn1_string_to_bn) #6
  tail call void (i32, i32, ptr, ...) @ERR_set_error(i32 noundef 13, i32 noundef 225, ptr noundef null) #6
  br label %19

8:                                                ; preds = %3
  %9 = getelementptr inbounds nuw i8, ptr %0, i64 8
  %10 = load ptr, ptr %9, align 8, !tbaa !11
  %11 = load i32, ptr %0, align 8, !tbaa !12
  %12 = tail call ptr @BN_bin2bn(ptr noundef %10, i32 noundef %11, ptr noundef %1) #6
  %13 = icmp eq ptr %12, null
  br i1 %13, label %14, label %15

14:                                               ; preds = %8
  tail call void @ERR_new() #6
  tail call void @ERR_set_debug(ptr noundef nonnull @.str, i32 noundef 521, ptr noundef nonnull @__func__.asn1_string_to_bn) #6
  tail call void (i32, i32, ptr, ...) @ERR_set_error(i32 noundef 13, i32 noundef 105, ptr noundef null) #6
  br label %19

15:                                               ; preds = %8
  %16 = load i32, ptr %4, align 4, !tbaa !3
  %17 = and i32 %16, 256
  %.not10 = icmp eq i32 %17, 0
  br i1 %.not10, label %19, label %18

18:                                               ; preds = %15
  tail call void @BN_set_negative(ptr noundef nonnull %12, i32 noundef 1) #6
  br label %19

19:                                               ; preds = %15, %18, %14, %7
  %.0 = phi ptr [ null, %7 ], [ null, %14 ], [ %12, %18 ], [ %12, %15 ]
  ret ptr %.0
}